target datalayout = "e-m:e-p270:32:32-p271:32:32-p272:64:64-i64:64-i128:128-f80:128-n8:16:32:64-S128"
target triple = "x86_64-pc-linux-gnu"

%struct.TwoPhaseStateData = type { ptr, i32, [0 x ptr] }
%struct.GlobalTransactionData = type { ptr, i32, i64, i64, i64, i32, i32, i32, i8, i8, i8, [200 x i8] }

@TwoPhaseState = internal global ptr null, align 8
@.str.2 = private unnamed_addr constant [11 x i8] c"twophase.c\00", align 1
@.str.23 = private unnamed_addr constant [37 x i8] c"removing 2PC data for transaction %u\00", align 1
@__func__.PrepareRedoRemove = private unnamed_addr constant [18 x i8] c"PrepareRedoRemove\00", align 1
@.str.26 = private unnamed_addr constant [45 x i8] c"failed to find %p in GlobalTransaction array\00", align 1
@__func__.RemoveGXact = private unnamed_addr constant [12 x i8] c"RemoveGXact\00", align 1

; Function Attrs: nounwind uwtable
define internal void @RemoveGXact(ptr noundef %0) #0 {
  %2 = alloca ptr, align 8
  %3 = alloca i32, align 4
  %4 = alloca i32, align 4
  store ptr %0, ptr %2, align 8
  call void @llvm.lifetime.start.p0(i64 4, ptr %3) #12
  store i32 0, ptr %3, align 4
  br label %5

5:                                                ; preds = %47, %1
  %6 = load i32, ptr %3, align 4
  %7 = load ptr, ptr @TwoPhaseState, align 8
  %8 = getelementptr inbounds nuw %struct.TwoPhaseStateData, ptr %7, i32 0, i32 1
  %9 = load i32, ptr %8, align 8
  %10 = icmp slt i32 %6, %9
  br i1 %10, label %11, label %50

11:                                               ; preds = %5
  %12 = load ptr, ptr %2, align 8
  %13 = load ptr, ptr @TwoPhaseState, align 8
  %14 = getelementptr inbounds nuw %struct.TwoPhaseStateData, ptr %13, i32 0, i32 2
  %15 = load i32, ptr %3, align 4
  %16 = sext i32 %15 to i64
  %17 = getelementptr inbounds [0 x ptr], ptr %14, i64 0, i64 %16
  %18 = load ptr, ptr %17, align 8
  %19 = icmp eq ptr %12, %18
  br i1 %19, label %20, label %46

20:                                               ; preds = %11
  %21 = load ptr, ptr @TwoPhaseState, align 8
  %22 = getelementptr inbounds nuw %struct.TwoPhaseStateData, ptr %21, i32 0, i32 1
  %23 = load i32, ptr %22, align 8
  %24 = add i32 %23, -1
  store i32 %24, ptr %22, align 8
  %25 = load ptr, ptr @TwoPhaseState, align 8
  %26 = getelementptr inbounds nuw %struct.TwoPhaseStateData, ptr %25, i32 0, i32 2
  %27 = load ptr, ptr @TwoPhaseState, align 8
  %28 = getelementptr inbounds nuw %struct.TwoPhaseStateData, ptr %27, i32 0, i32 1
  %29 = load i32, ptr %28, align 8
  %30 = sext i32 %29 to i64
  %31 = getelementptr inbounds [0 x ptr], ptr %26, i64 0, i64 %30
  %32 = load ptr, ptr %31, align 8
  %33 = load ptr, ptr @TwoPhaseState, align 8
  %34 = getelementptr inbounds nuw %struct.TwoPhaseStateData, ptr %33, i32 0, i32 2
  %35 = load i32, ptr %3, align 4
  %36 = sext i32 %35 to i64
  %37 = getelementptr inbounds [0 x ptr], ptr %34, i64 0, i64 %36
  store ptr %32, ptr %37, align 8
  %38 = load ptr, ptr @TwoPhaseState, align 8
  %39 = getelementptr inbounds nuw %struct.TwoPhaseStateData, ptr %38, i32 0, i32 0
  %40 = load ptr, ptr %39, align 8
  %41 = load ptr, ptr %2, align 8
  %42 = getelementptr inbounds nuw %struct.GlobalTransactionData, ptr %41, i32 0, i32 0
  store ptr %40, ptr %42, align 8
  %43 = load ptr, ptr %2, align 8
  %44 = load ptr, ptr @TwoPhaseState, align 8
  %45 = getelementptr inbounds nuw %struct.TwoPhaseStateData, ptr %44, i32 0, i32 0
  store ptr %43, ptr %45, align 8
  store i32 1, ptr %4, align 4
  br label %62

46:                                               ; preds = %11
  br label %47

47:                                               ; preds = %46
  %48 = load i32, ptr %3, align 4
  %49 = add i32 %48, 1
  store i32 %49, ptr %3, align 4
  br label %5, !llvm.loop !8

50:                                               ; preds = %5
  br label %51

51:                                               ; preds = %50
  br i1 true, label %52, label %54

52:                                               ; preds = %51
  %53 = call zeroext i1 @errstart_cold(i32 noundef 21, ptr noundef null) #13
  br i1 %53, label %56, label %59

54:                                               ; preds = %51
  %55 = call zeroext i1 @errstart(i32 noundef 21, ptr noundef null)
  br i1 %55, label %56, label %59

56:                                               ; preds = %54, %52
  %57 = load ptr, ptr %2, align 8
  %58 = call i32 (ptr, ...) @errmsg_internal(ptr noundef @.str.26, ptr noundef %57)
  call void @errfinish(ptr noundef @.str.2, i32 noundef 650, ptr noundef @__func__.RemoveGXact)
  br label %59

59:                                               ; preds = %56, %54, %52
  unreachable

60:                                               ; No predecessors!
  br label %61

61:                                               ; preds = %60
  store i32 0, ptr %4, align 4
  br label %62

62:                                               ; preds = %61, %20
  call void @llvm.lifetime.end.p0(i64 4, ptr %3) #12
  %63 = load i32, ptr %4, align 4
  switch i32 %63, label %65 [
    i32 0, label %64
    i32 1, label %64
  ]

64:                                               ; preds = %62, %62
  ret void

65:                                               ; preds = %62
  unreachable
}

; Function Attrs: nounwind uwtable
define dso_local void @PrepareRedoRemove(i32 noundef %0, i1 noundef zeroext %1) #0 {
  %3 = alloca i32, align 4
  %4 = alloca i8, align 1
  %5 = alloca ptr, align 8
  %6 = alloca i32, align 4
  %7 = alloca i8, align 1
  %8 = alloca i32, align 4
  store i32 %0, ptr %3, align 4
  %9 = zext i1 %1 to i8
  store i8 %9, ptr %4, align 1
  call void @llvm.lifetime.start.p0(i64 8, ptr %5) #12
  store ptr null, ptr %5, align 8
  call void @llvm.lifetime.start.p0(i64 4, ptr %6) #12
  call void @llvm.lifetime.start.p0(i64 1, ptr %7) #12
  store i8 0, ptr %7, align 1
  store i32 0, ptr %6, align 4
  br label %10

10:                                               ; preds = %30, %2
  %11 = load i32, ptr %6, align 4
  %12 = load ptr, ptr @TwoPhaseState, align 8
  %13 = getelementptr inbounds nuw %struct.TwoPhaseStateData, ptr %12, i32 0, i32 1
  %14 = load i32, ptr %13, align 8
  %15 = icmp slt i32 %11, %14
  br i1 %15, label %16, label %33

16:                                               ; preds = %10
  %17 = load ptr, ptr @TwoPhaseState, align 8
  %18 = getelementptr inbounds nuw %struct.TwoPhaseStateData, ptr %17, i32 0, i32 2
  %19 = load i32, ptr %6, align 4
  %20 = sext i32 %19 to i64
  %21 = getelementptr inbounds [0 x ptr], ptr %18, i64 0, i64 %20
  %22 = load ptr, ptr %21, align 8
  store ptr %22, ptr %5, align 8
  %23 = load ptr, ptr %5, align 8
  %24 = getelementptr inbounds nuw %struct.GlobalTransactionData, ptr %23, i32 0, i32 5
  %25 = load i32, ptr %24, align 8
  %26 = load i32, ptr %3, align 4
  %27 = icmp eq i32 %25, %26
  br i1 %27, label %28, label %29

28:                                               ; preds = %16
  store i8 1, ptr %7, align 1
  br label %33

29:                                               ; preds = %16
  br label %30

30:                                               ; preds = %29
  %31 = load i32, ptr %6, align 4
  %32 = add i32 %31, 1
  store i32 %32, ptr %6, align 4
  br label %10, !llvm.loop !24

33:                                               ; preds = %28, %10
  %34 = load i8, ptr %7, align 1, !range !4, !noundef !5
  %35 = trunc i8 %34 to i1
  br i1 %35, label %37, label %36

36:                                               ; preds = %33
  store i32 1, ptr %8, align 4
  br label %59

37:                                               ; preds = %33
  br label %38

38:                                               ; preds = %37
  br i1 false, label %39, label %41

39:                                               ; preds = %38
  %40 = call zeroext i1 @errstart_cold(i32 noundef 13, ptr noundef null) #13
  br i1 %40, label %43, label %46

41:                                               ; preds = %38
  %42 = call zeroext i1 @errstart(i32 noundef 13, ptr noundef null)
  br i1 %42, label %43, label %46

43:                                               ; preds = %41, %39
  %44 = load i32, ptr %3, align 4
  %45 = call i32 (ptr, ...) @errmsg_internal(ptr noundef @.str.23, i32 noundef %44)
  call void @errfinish(ptr noundef @.str.2, i32 noundef 2601, ptr noundef @__func__.PrepareRedoRemove)
  br label %46

46:                                               ; preds = %43, %41, %39
  br label %47

47:                                               ; preds = %46
  br label %48

48:                                               ; preds = %47
  %49 = load ptr, ptr %5, align 8
  %50 = getelementptr inbounds nuw %struct.GlobalTransactionData, ptr %49, i32 0, i32 9
  %51 = load i8, ptr %50, align 1, !range !4, !noundef !5
  %52 = trunc i8 %51 to i1
  br i1 %52, label %53, label %57

53:                                               ; preds = %48
  %54 = load i32, ptr %3, align 4
  %55 = load i8, ptr %4, align 1, !range !4, !noundef !5
  %56 = trunc i8 %55 to i1
  call void @RemoveTwoPhaseFile(i32 noundef %54, i1 noundef zeroext %56)
  br label %57

57:                                               ; preds = %53, %48
  %58 = load ptr, ptr %5, align 8
  call void @RemoveGXact(ptr noundef %58)
  store i32 0, ptr %8, align 4
  br label %59

59:                                               ; preds = %57, %36
  call void @llvm.lifetime.end.p0(i64 1, ptr %7) #12
  call void @llvm.lifetime.end.p0(i64 4, ptr %6) #12
  call void @llvm.lifetime.end.p0(i64 8, ptr %5) #12
  %60 = load i32, ptr %8, align 4
  switch i32 %60, label %62 [
    i32 0, label %61
    i32 1, label %61
  ]

61:                                               ; preds = %59, %59
  ret void

62:                                               ; preds = %59
  unreachable
}