; Function Attrs: nounwind uwtable
define dso_local void @PrepareRedoRemove(i32 noundef %0, i1 noundef zeroext %1) local_unnamed_addr #0 {
  %3 = load ptr, ptr @TwoPhaseState, align 8
  %4 = getelementptr inbounds nuw i8, ptr %3, i64 8
  %5 = load i32, ptr %4, align 8
  %6 = icmp sgt i32 %5, 0
  br i1 %6, label %.lr.ph, label %.loopexit

.lr.ph:                                           ; preds = %2
  %7 = getelementptr inbounds nuw i8, ptr %3, i64 16
  %wide.trip.count = zext nneg i32 %5 to i64
  br label %9

8:                                                ; preds = %9
  %indvars.iv.next = add nuw nsw i64 %indvars.iv, 1
  %exitcond.not = icmp eq i64 %indvars.iv.next, %wide.trip.count
  br i1 %exitcond.not, label %.loopexit, label %9, !llvm.loop !24

9:                                                ; preds = %.lr.ph, %8
  %indvars.iv = phi i64 [ 0, %.lr.ph ], [ %indvars.iv.next, %8 ]
  %10 = getelementptr inbounds nuw [0 x ptr], ptr %7, i64 0, i64 %indvars.iv
  %11 = load ptr, ptr %10, align 8
  %12 = getelementptr inbounds nuw i8, ptr %11, i64 40
  %13 = load i32, ptr %12, align 8
  %14 = icmp eq i32 %13, %0
  br i1 %14, label %15, label %8

15:                                               ; preds = %9
  %16 = tail call zeroext i1 @errstart(i32 noundef 13, ptr noundef null) #14
  br i1 %16, label %17, label %19

17:                                               ; preds = %15
  %18 = tail call i32 (ptr, ...) @errmsg_internal(ptr noundef nonnull @.str.23, i32 noundef %0) #14
  tail call void @errfinish(ptr noundef nonnull @.str.2, i32 noundef 2601, ptr noundef nonnull @__func__.PrepareRedoRemove) #14
  br label %19

19:                                               ; preds = %17, %15
  %20 = getelementptr inbounds nuw i8, ptr %11, i64 53
  %21 = load i8, ptr %20, align 1, !range !4, !noundef !5
  %22 = trunc nuw i8 %21 to i1
  br i1 %22, label %23, label %24

23:                                               ; preds = %19
  tail call fastcc void @RemoveTwoPhaseFile(i32 noundef %0, i1 noundef zeroext %1)
  br label %24

24:                                               ; preds = %23, %19
  %25 = load ptr, ptr @TwoPhaseState, align 8
  %26 = getelementptr inbounds nuw i8, ptr %25, i64 8
  %27 = load i32, ptr %26, align 8
  %28 = icmp sgt i32 %27, 0
  br i1 %28, label %.lr.ph.i, label %._crit_edge.i

.lr.ph.i:                                         ; preds = %24
  %29 = getelementptr inbounds nuw i8, ptr %25, i64 16
  %wide.trip.count.i = zext nneg i32 %27 to i64
  br label %31

30:                                               ; preds = %31
  %indvars.iv.next.i = add nuw nsw i64 %indvars.iv.i, 1
  %exitcond.not.i = icmp eq i64 %indvars.iv.next.i, %wide.trip.count.i
  br i1 %exitcond.not.i, label %._crit_edge.i, label %31, !llvm.loop !8

31:                                               ; preds = %30, %.lr.ph.i
  %indvars.iv.i = phi i64 [ 0, %.lr.ph.i ], [ %indvars.iv.next.i, %30 ]
  %32 = getelementptr inbounds nuw [0 x ptr], ptr %29, i64 0, i64 %indvars.iv.i
  %33 = load ptr, ptr %32, align 8
  %34 = icmp eq ptr %11, %33
  br i1 %34, label %RemoveGXact.exit, label %30

._crit_edge.i:                                    ; preds = %30, %24
  %35 = tail call zeroext i1 @errstart_cold(i32 noundef 21, ptr noundef null) #15
  tail call void @llvm.assume(i1 %35)
  %36 = tail call i32 (ptr, ...) @errmsg_internal(ptr noundef nonnull @.str.26, ptr noundef %11) #14
  tail call void @errfinish(ptr noundef nonnull @.str.2, i32 noundef 650, ptr noundef nonnull @__func__.RemoveGXact) #14
  unreachable

RemoveGXact.exit:                                 ; preds = %31
  %37 = getelementptr inbounds nuw [0 x ptr], ptr %29, i64 0, i64 %indvars.iv.i
  %38 = add nsw i32 %27, -1
  store i32 %38, ptr %26, align 8
  %39 = sext i32 %38 to i64
  %40 = getelementptr inbounds [0 x ptr], ptr %29, i64 0, i64 %39
  %41 = load ptr, ptr %40, align 8
  store ptr %41, ptr %37, align 8
  %42 = load ptr, ptr %25, align 8
  store ptr %42, ptr %11, align 8
  store ptr %11, ptr %25, align 8
  br label %.loopexit

.loopexit:                                        ; preds = %8, %2, %RemoveGXact.exit
  ret void
}